target datalayout = "e-m:e-p270:32:32-p271:32:32-p272:64:64-i64:64-i128:128-f80:128-n8:16:32:64-S128"
target triple = "x86_64-pc-linux-gnu"

%"class.__gnu_cxx::__normal_iterator" = type { ptr }
%"struct.std::_Vector_base" = type { %"struct.std::_Vector_base<std::vector<std::pair<cv::Ptr<cv::detail::tracking::TrackerTargetState>, float>>, std::allocator<std::vector<std::pair<cv::Ptr<cv::detail::tracking::TrackerTargetState>, float>>>>::_Vector_impl" }
%"struct.std::_Vector_base<std::vector<std::pair<cv::Ptr<cv::detail::tracking::TrackerTargetState>, float>>, std::allocator<std::vector<std::pair<cv::Ptr<cv::detail::tracking::TrackerTargetState>, float>>>>::_Vector_impl" = type { %"struct.std::_Vector_base<std::vector<std::pair<cv::Ptr<cv::detail::tracking::TrackerTargetState>, float>>, std::allocator<std::vector<std::pair<cv::Ptr<cv::detail::tracking::TrackerTargetState>, float>>>>::_Vector_impl_data" }
%"struct.std::_Vector_base<std::vector<std::pair<cv::Ptr<cv::detail::tracking::TrackerTargetState>, float>>, std::allocator<std::vector<std::pair<cv::Ptr<cv::detail::tracking::TrackerTargetState>, float>>>>::_Vector_impl_data" = type { ptr, ptr, ptr }

; Function Attrs: mustprogress nounwind uwtable
define linkonce_odr hidden noundef nonnull align 8 dereferenceable(8) ptr @_ZNK9__gnu_cxx17__normal_iteratorIPKSt6vectorISt4pairIN2cv3PtrINS3_6detail8tracking18TrackerTargetStateEEEfESaIS9_EES1_ISB_SaISB_EEE4baseEv(ptr noundef nonnull align 8 dereferenceable(8) %0) #0 comdat align 2 {
  %2 = alloca ptr, align 8
  store ptr %0, ptr %2, align 8, !tbaa !39
  %3 = load ptr, ptr %2, align 8
  %4 = getelementptr inbounds nuw %"class.__gnu_cxx::__normal_iterator", ptr %3, i32 0, i32 0
  ret ptr %4
}

; Function Attrs: mustprogress nounwind uwtable
define linkonce_odr hidden void @_ZN9__gnu_cxx17__normal_iteratorIPKSt6vectorISt4pairIN2cv3PtrINS3_6detail8tracking18TrackerTargetStateEEEfESaIS9_EES1_ISB_SaISB_EEEC2ERKSD_(ptr noundef nonnull align 8 dereferenceable(8) %0, ptr noundef nonnull align 8 dereferenceable(8) %1) unnamed_addr #0 comdat align 2 {
  %3 = alloca ptr, align 8
  %4 = alloca ptr, align 8
  store ptr %0, ptr %3, align 8, !tbaa !39
  store ptr %1, ptr %4, align 8, !tbaa !43
  %5 = load ptr, ptr %3, align 8
  %6 = getelementptr inbounds nuw %"class.__gnu_cxx::__normal_iterator", ptr %5, i32 0, i32 0
  %7 = load ptr, ptr %4, align 8, !tbaa !43
  %8 = load ptr, ptr %7, align 8, !tbaa !41
  store ptr %8, ptr %6, align 8, !tbaa !45
  ret void
}

; Function Attrs: inlinehint mustprogress nounwind uwtable
define linkonce_odr hidden noundef zeroext i1 @_ZN9__gnu_cxxeqIPKSt6vectorISt4pairIN2cv3PtrINS3_6detail8tracking18TrackerTargetStateEEEfESaIS9_EES1_ISB_SaISB_EEEEbRKNS_17__normal_iteratorIT_T0_EESL_(ptr noundef nonnull align 8 dereferenceable(8) %0, ptr noundef nonnull align 8 dereferenceable(8) %1) #3 comdat {
  %3 = alloca ptr, align 8
  %4 = alloca ptr, align 8
  store ptr %0, ptr %3, align 8, !tbaa !39
  store ptr %1, ptr %4, align 8, !tbaa !39
  %5 = load ptr, ptr %3, align 8, !tbaa !39
  %6 = call noundef nonnull align 8 dereferenceable(8) ptr @_ZNK9__gnu_cxx17__normal_iteratorIPKSt6vectorISt4pairIN2cv3PtrINS3_6detail8tracking18TrackerTargetStateEEEfESaIS9_EES1_ISB_SaISB_EEE4baseEv(ptr noundef nonnull align 8 dereferenceable(8) %5) #11
  %7 = load ptr, ptr %6, align 8, !tbaa !41
  %8 = load ptr, ptr %4, align 8, !tbaa !39
  %9 = call noundef nonnull align 8 dereferenceable(8) ptr @_ZNK9__gnu_cxx17__normal_iteratorIPKSt6vectorISt4pairIN2cv3PtrINS3_6detail8tracking18TrackerTargetStateEEEfESaIS9_EES1_ISB_SaISB_EEE4baseEv(ptr noundef nonnull align 8 dereferenceable(8) %8) #11
  %10 = load ptr, ptr %9, align 8, !tbaa !41
  %11 = icmp eq ptr %7, %10
  ret i1 %11
}

; Function Attrs: mustprogress nounwind uwtable
define linkonce_odr hidden ptr @_ZNKSt6vectorIS_ISt4pairIN2cv3PtrINS1_6detail8tracking18TrackerTargetStateEEEfESaIS7_EESaIS9_EE3endEv(ptr noundef nonnull align 8 dereferenceable(24) %0) #0 comdat align 2 {
  %2 = alloca %"class.__gnu_cxx::__normal_iterator", align 8
  %3 = alloca ptr, align 8
  store ptr %0, ptr %3, align 8, !tbaa !12
  %4 = load ptr, ptr %3, align 8
  %5 = getelementptr inbounds nuw %"struct.std::_Vector_base", ptr %4, i32 0, i32 0
  %6 = getelementptr inbounds nuw %"struct.std::_Vector_base<std::vector<std::pair<cv::Ptr<cv::detail::tracking::TrackerTargetState>, float>>, std::allocator<std::vector<std::pair<cv::Ptr<cv::detail::tracking::TrackerTargetState>, float>>>>::_Vector_impl_data", ptr %5, i32 0, i32 1
  call void @_ZN9__gnu_cxx17__normal_iteratorIPKSt6vectorISt4pairIN2cv3PtrINS3_6detail8tracking18TrackerTargetStateEEEfESaIS9_EES1_ISB_SaISB_EEEC2ERKSD_(ptr noundef nonnull align 8 dereferenceable(8) %2, ptr noundef nonnull align 8 dereferenceable(8) %6) #11
  %7 = getelementptr inbounds nuw %"class.__gnu_cxx::__normal_iterator", ptr %2, i32 0, i32 0
  %8 = load ptr, ptr %7, align 8
  ret ptr %8
}

; Function Attrs: mustprogress nounwind uwtable
define linkonce_odr hidden ptr @_ZNKSt6vectorIS_ISt4pairIN2cv3PtrINS1_6detail8tracking18TrackerTargetStateEEEfESaIS7_EESaIS9_EE5beginEv(ptr noundef nonnull align 8 dereferenceable(24) %0) #0 comdat align 2 {
  %2 = alloca %"class.__gnu_cxx::__normal_iterator", align 8
  %3 = alloca ptr, align 8
  store ptr %0, ptr %3, align 8, !tbaa !12
  %4 = load ptr, ptr %3, align 8
  %5 = getelementptr inbounds nuw %"struct.std::_Vector_base", ptr %4, i32 0, i32 0
  %6 = getelementptr inbounds nuw %"struct.std::_Vector_base<std::vector<std::pair<cv::Ptr<cv::detail::tracking::TrackerTargetState>, float>>, std::allocator<std::vector<std::pair<cv::Ptr<cv::detail::tracking::TrackerTargetState>, float>>>>::_Vector_impl_data", ptr %5, i32 0, i32 0
  call void @_ZN9__gnu_cxx17__normal_iteratorIPKSt6vectorISt4pairIN2cv3PtrINS3_6detail8tracking18TrackerTargetStateEEEfESaIS9_EES1_ISB_SaISB_EEEC2ERKSD_(ptr noundef nonnull align 8 dereferenceable(8) %2, ptr noundef nonnull align 8 dereferenceable(8) %6) #11
  %7 = getelementptr inbounds nuw %"class.__gnu_cxx::__normal_iterator", ptr %2, i32 0, i32 0
  %8 = load ptr, ptr %7, align 8
  ret ptr %8
}

; Function Attrs: mustprogress nounwind uwtable
define linkonce_odr hidden noundef zeroext i1 @_ZNKSt6vectorIS_ISt4pairIN2cv3PtrINS1_6detail8tracking18TrackerTargetStateEEEfESaIS7_EESaIS9_EE5emptyEv(ptr noundef nonnull align 8 dereferenceable(24) %0) #0 comdat align 2 {
  %2 = alloca ptr, align 8
  %3 = alloca %"class.__gnu_cxx::__normal_iterator", align 8
  %4 = alloca %"class.__gnu_cxx::__normal_iterator", align 8
  store ptr %0, ptr %2, align 8, !tbaa !12
  %5 = load ptr, ptr %2, align 8
  call void @llvm.lifetime.start.p0(i64 8, ptr %3) #11
  %6 = call ptr @_ZNKSt6vectorIS_ISt4pairIN2cv3PtrINS1_6detail8tracking18TrackerTargetStateEEEfESaIS7_EESaIS9_EE5beginEv(ptr noundef nonnull align 8 dereferenceable(24) %5) #11
  %7 = getelementptr inbounds nuw %"class.__gnu_cxx::__normal_iterator", ptr %3, i32 0, i32 0
  store ptr %6, ptr %7, align 8
  call void @llvm.lifetime.start.p0(i64 8, ptr %4) #11
  %8 = call ptr @_ZNKSt6vectorIS_ISt4pairIN2cv3PtrINS1_6detail8tracking18TrackerTargetStateEEEfESaIS7_EESaIS9_EE3endEv(ptr noundef nonnull align 8 dereferenceable(24) %5) #11
  %9 = getelementptr inbounds nuw %"class.__gnu_cxx::__normal_iterator", ptr %4, i32 0, i32 0
  store ptr %8, ptr %9, align 8
  %10 = call noundef zeroext i1 @_ZN9__gnu_cxxeqIPKSt6vectorISt4pairIN2cv3PtrINS3_6detail8tracking18TrackerTargetStateEEEfESaIS9_EES1_ISB_SaISB_EEEEbRKNS_17__normal_iteratorIT_T0_EESL_(ptr noundef nonnull align 8 dereferenceable(8) %3, ptr noundef nonnull align 8 dereferenceable(8) %4) #11
  call void @llvm.lifetime.end.p0(i64 8, ptr %4) #11
  call void @llvm.lifetime.end.p0(i64 8, ptr %3) #11
  ret i1 %10
}

; Function Attrs: mustprogress uwtable
define void @_ZN2cv6detail8tracking21TrackerStateEstimator6updateERSt6vectorIS3_ISt4pairINS_3PtrINS1_18TrackerTargetStateEEEfESaIS8_EESaISA_EE(ptr noundef nonnull align 8 dereferenceable(40) %0, ptr noundef nonnull align 8 dereferenceable(24) %1) #2 align 2 {
  %3 = alloca ptr, align 8
  %4 = alloca ptr, align 8
  store ptr %0, ptr %3, align 8, !tbaa !3
  store ptr %1, ptr %4, align 8, !tbaa !12
  %5 = load ptr, ptr %3, align 8
  %6 = load ptr, ptr %4, align 8, !tbaa !12
  %7 = call noundef zeroext i1 @_ZNKSt6vectorIS_ISt4pairIN2cv3PtrINS1_6detail8tracking18TrackerTargetStateEEEfESaIS7_EESaIS9_EE5emptyEv(ptr noundef nonnull align 8 dereferenceable(24) %6) #11
  br i1 %7, label %8, label %9

8:                                                ; preds = %2
  br label %14

9:                                                ; preds = %2
  %10 = load ptr, ptr %4, align 8, !tbaa !12
  %11 = load ptr, ptr %5, align 8, !tbaa !8
  %12 = getelementptr inbounds ptr, ptr %11, i64 3
  %13 = load ptr, ptr %12, align 8
  call void %13(ptr noundef nonnull align 8 dereferenceable(40) %5, ptr noundef nonnull align 8 dereferenceable(24) %10)
  br label %14

14:                                               ; preds = %9, %8
  ret void
}