; Function Attrs: mustprogress uwtable
define void @_ZN2cv6detail8tracking21TrackerStateEstimator6updateERSt6vectorIS3_ISt4pairINS_3PtrINS1_18TrackerTargetStateEEEfESaIS8_EESaISA_EE(ptr noundef nonnull align 8 dereferenceable(40) %0, ptr noundef nonnull align 8 dereferenceable(24) %1) local_unnamed_addr #3 align 2 {
  %3 = load ptr, ptr %1, align 8, !tbaa !14
  %4 = getelementptr inbounds nuw i8, ptr %1, i64 8
  %5 = load ptr, ptr %4, align 8, !tbaa !14
  %6 = icmp eq ptr %3, %5
  br i1 %6, label %11, label %7

7:                                                ; preds = %2
  %8 = load ptr, ptr %0, align 8, !tbaa !3
  %9 = getelementptr inbounds nuw i8, ptr %8, i64 24
  %10 = load ptr, ptr %9, align 8
  tail call void %10(ptr noundef nonnull align 8 dereferenceable(40) %0, ptr noundef nonnull align 8 dereferenceable(24) %1)
  br label %11

11:                                               ; preds = %2, %7
  ret void
}